; Function Attrs: nofree norecurse nosync nounwind memory(readwrite, inaccessiblemem: none) uwtable
define void @Gia_ManCleanMark1(ptr noundef readonly captures(none) %0) local_unnamed_addr #1 {
  %2 = getelementptr i8, ptr %0, i64 32
  %3 = getelementptr inbounds nuw i8, ptr %0, i64 24
  %4 = load i32, ptr %3, align 8
  %5 = icmp sgt i32 %4, 0
  br i1 %5, label %.lr.ph, label %.critedge

.lr.ph:                                           ; preds = %1, %6
  %indvars.iv = phi i64 [ %indvars.iv.next, %6 ], [ 0, %1 ]
  %.val = load ptr, ptr %2, align 8
  %.not = icmp eq ptr %.val, null
  br i1 %.not, label %.critedge, label %6

6:                                                ; preds = %.lr.ph
  %7 = getelementptr inbounds nuw %struct.Gia_Obj_t_, ptr %.val, i64 %indvars.iv
  %8 = load i64, ptr %7, align 4
  %9 = and i64 %8, -4611686018427387905
  store i64 %9, ptr %7, align 4
  %indvars.iv.next = add nuw nsw i64 %indvars.iv, 1
  %10 = load i32, ptr %3, align 8
  %11 = sext i32 %10 to i64
  %12 = icmp slt i64 %indvars.iv.next, %11
  br i1 %12, label %.lr.ph, label %.critedge, !llvm.loop !12

.critedge:                                        ; preds = %.lr.ph, %6, %1
  ret void
}